; Function Attrs: nounwind uwtable
define internal noundef i32 @lj_cf_jit_profile_start(ptr noundef %0) #0 {
  %2 = alloca %union.TValue, align 8
  %3 = getelementptr inbounds nuw i8, ptr %0, i64 16
  %4 = load i64, ptr %3, align 8, !tbaa !4
  %5 = inttoptr i64 %4 to ptr
  %6 = getelementptr inbounds nuw i8, ptr %5, i64 272
  %7 = load i64, ptr %6, align 8, !tbaa !34
  %8 = and i64 %7, 140737488355327
  %9 = inttoptr i64 %8 to ptr
  %10 = tail call ptr @lj_lib_optstr(ptr noundef %0, i32 noundef 1) #8
  %11 = tail call ptr @lj_lib_checkfunc(ptr noundef %0, i32 noundef 2) #8
  %12 = tail call ptr @lua_newthread(ptr noundef %0) #8
  call void @llvm.lifetime.start.p0(i64 8, ptr nonnull %2) #8
  store i64 -9223372036854775692, ptr %2, align 8, !tbaa !34
  %13 = call ptr @lj_tab_set(ptr noundef %0, ptr noundef %9, ptr noundef nonnull %2) #8
  %14 = ptrtoint ptr %12 to i64
  %15 = or i64 %14, -985162418487296
  store i64 %15, ptr %13, align 8, !tbaa !34
  store i64 -9223372036854775706, ptr %2, align 8, !tbaa !34
  %16 = call ptr @lj_tab_set(ptr noundef %0, ptr noundef %9, ptr noundef nonnull %2) #8
  %17 = ptrtoint ptr %11 to i64
  %18 = or i64 %17, -1266637395197952
  store i64 %18, ptr %16, align 8, !tbaa !34
  %19 = getelementptr inbounds nuw i8, ptr %9, i64 8
  %20 = load i8, ptr %19, align 8, !tbaa !34
  %21 = and i8 %20, 4
  %.not = icmp eq i8 %21, 0
  br i1 %.not, label %29, label %22, !prof !49

22:                                               ; preds = %1
  %23 = load i64, ptr %3, align 8, !tbaa !4
  %24 = inttoptr i64 %23 to ptr
  %25 = and i8 %20, -5
  store i8 %25, ptr %19, align 8, !tbaa !34
  %26 = getelementptr inbounds nuw i8, ptr %24, i64 64
  %27 = load i64, ptr %26, align 8, !tbaa !50
  %28 = getelementptr inbounds nuw i8, ptr %9, i64 24
  store i64 %27, ptr %28, align 8, !tbaa !51
  store i64 %8, ptr %26, align 8, !tbaa !50
  br label %29

29:                                               ; preds = %22, %1
  %.not19 = icmp eq ptr %10, null
  %30 = getelementptr inbounds nuw i8, ptr %10, i64 24
  %31 = select i1 %.not19, ptr @.str.12, ptr %30
  call void @luaJIT_profile_start(ptr noundef nonnull %0, ptr noundef nonnull %31, ptr noundef nonnull @jit_profile_callback, ptr noundef %12) #8
  call void @llvm.lifetime.end.p0(i64 8, ptr nonnull %2) #8
  ret i32 0
}